target datalayout = "e-m:e-p270:32:32-p271:32:32-p272:64:64-i64:64-i128:128-f80:128-n8:16:32:64-S128"
target triple = "x86_64-unknown-linux-gnu"

%"class.google::protobuf::Message" = type { %"class.google::protobuf::MessageLite" }
%"class.google::protobuf::MessageLite" = type { ptr, %"class.google::protobuf::internal::InternalMetadata" }
%"class.google::protobuf::internal::InternalMetadata" = type { ptr }
%"class.google::protobuf::internal::CachedSize" = type { %"struct.std::atomic" }
%"struct.std::atomic" = type { %"struct.std::__atomic_base" }
%"struct.std::__atomic_base" = type { i32 }
%"class.google::protobuf::internal::RepeatedPtrFieldBase" = type { ptr, i32, i32, ptr }
%"class.mygame::rect32s" = type <{ %"class.google::protobuf::Message", %"class.google::protobuf::RepeatedPtrField.16", %"class.google::protobuf::internal::CachedSize", [4 x i8] }>
%"class.google::protobuf::RepeatedPtrField.16" = type { %"class.google::protobuf::internal::RepeatedPtrFieldBase" }
%"class.google::protobuf::internal::RepeatedPtrIterator.17" = type { ptr }
%"class.google::protobuf::internal::RepeatedPtrIterator.37" = type { ptr }
%"struct.google::protobuf::internal::RepeatedPtrFieldBase::Rep" = type { i32, [1 x ptr] }

; Function Attrs: mustprogress nounwind uwtable
define linkonce_odr dso_local noundef i32 @_ZN6google8protobuf4Bits16Log2FloorNonZeroEj(i32 noundef %n) #5 comdat align 2 {
entry:
  %n.addr = alloca i32, align 4
  store i32 %n, ptr %n.addr, align 4
  %0 = load i32, ptr %n.addr, align 4
  %1 = call i32 @llvm.ctlz.i32(i32 %0, i1 true)
  %xor = xor i32 31, %1
  ret i32 %xor
}

; Function Attrs: noreturn nounwind uwtable
define linkonce_odr hidden void @__clang_call_terminate(ptr noundef %0) #7 comdat {
  %2 = call ptr @__cxa_begin_catch(ptr %0) #3
  call void @_ZSt9terminatev() #14
  unreachable
}

; Function Attrs: mustprogress nounwind uwtable
define linkonce_odr dso_local noundef i32 @_ZStanSt12memory_orderSt23__memory_order_modifier(i32 noundef %__m, i32 noundef %__mod) #5 comdat {
entry:
  %__m.addr = alloca i32, align 4
  %__mod.addr = alloca i32, align 4
  store i32 %__m, ptr %__m.addr, align 4
  store i32 %__mod, ptr %__mod.addr, align 4
  %0 = load i32, ptr %__m.addr, align 4
  %1 = load i32, ptr %__mod.addr, align 4
  %and = and i32 %0, %1
  ret i32 %and
}

; Function Attrs: mustprogress uwtable
define linkonce_odr dso_local noundef i64 @_ZN6google8protobuf2io17CodedOutputStream12VarintSize32Ej(i32 noundef %value) #4 comdat align 2 {
entry:
  %value.addr = alloca i32, align 4
  %log2value = alloca i32, align 4
  store i32 %value, ptr %value.addr, align 4
  %0 = load i32, ptr %value.addr, align 4
  %or = or i32 %0, 1
  %call = call noundef i32 @_ZN6google8protobuf4Bits16Log2FloorNonZeroEj(i32 noundef %or)
  store i32 %call, ptr %log2value, align 4
  %1 = load i32, ptr %log2value, align 4
  %mul = mul i32 %1, 9
  %add = add i32 %mul, 73
  %div = udiv i32 %add, 64
  %conv = zext i32 %div to i64
  ret i64 %conv
}

; Function Attrs: mustprogress nounwind uwtable
define linkonce_odr dso_local noundef i32 @_ZNK6google8protobuf8internal20RepeatedPtrFieldBase4sizeEv(ptr noundef nonnull align 8 dereferenceable(24) %this) #5 comdat align 2 {
entry:
  %this.addr = alloca ptr, align 8
  store ptr %this, ptr %this.addr, align 8
  %this1 = load ptr, ptr %this.addr, align 8
  %current_size_ = getelementptr inbounds %"class.google::protobuf::internal::RepeatedPtrFieldBase", ptr %this1, i32 0, i32 1
  %0 = load i32, ptr %current_size_, align 8
  ret i32 %0
}

; Function Attrs: mustprogress nounwind uwtable
define linkonce_odr dso_local void @_ZN6google8protobuf8internal10CachedSize3SetEi(ptr noundef nonnull align 4 dereferenceable(4) %this, i32 noundef %size) #5 comdat align 2 personality ptr @__gxx_personality_v0 {
entry:
  %this.addr.i = alloca ptr, align 8
  %__i.addr.i = alloca i32, align 4
  %__m.addr.i = alloca i32, align 4
  %__b.i = alloca i32, align 4
  %.atomictmp.i = alloca i32, align 4
  %this.addr = alloca ptr, align 8
  %size.addr = alloca i32, align 4
  store ptr %this, ptr %this.addr, align 8
  store i32 %size, ptr %size.addr, align 4
  %this1 = load ptr, ptr %this.addr, align 8
  %size_ = getelementptr inbounds %"class.google::protobuf::internal::CachedSize", ptr %this1, i32 0, i32 0
  %0 = load i32, ptr %size.addr, align 4
  store ptr %size_, ptr %this.addr.i, align 8
  store i32 %0, ptr %__i.addr.i, align 4
  store i32 0, ptr %__m.addr.i, align 4
  %this1.i = load ptr, ptr %this.addr.i, align 8
  %1 = load i32, ptr %__m.addr.i, align 4
  %call.i = invoke noundef i32 @_ZStanSt12memory_orderSt23__memory_order_modifier(i32 noundef %1, i32 noundef 65535)
          to label %invoke.cont.i unwind label %terminate.lpad.i

invoke.cont.i:                                    ; preds = %entry
  store i32 %call.i, ptr %__b.i, align 4
  %2 = load i32, ptr %__m.addr.i, align 4
  %3 = load i32, ptr %__i.addr.i, align 4
  store i32 %3, ptr %.atomictmp.i, align 4
  switch i32 %2, label %monotonic.i [
    i32 3, label %release.i
    i32 5, label %seqcst.i
  ]

monotonic.i:                                      ; preds = %invoke.cont.i
  %4 = load i32, ptr %.atomictmp.i, align 4
  store atomic i32 %4, ptr %this1.i monotonic, align 4
  br label %_ZNSt13__atomic_baseIiE5storeEiSt12memory_order.exit

release.i:                                        ; preds = %invoke.cont.i
  %5 = load i32, ptr %.atomictmp.i, align 4
  store atomic i32 %5, ptr %this1.i release, align 4
  br label %_ZNSt13__atomic_baseIiE5storeEiSt12memory_order.exit

seqcst.i:                                         ; preds = %invoke.cont.i
  %6 = load i32, ptr %.atomictmp.i, align 4
  store atomic i32 %6, ptr %this1.i seq_cst, align 4
  br label %_ZNSt13__atomic_baseIiE5storeEiSt12memory_order.exit

terminate.lpad.i:                                 ; preds = %entry
  %7 = landingpad { ptr, i32 }
          catch ptr null
  %8 = extractvalue { ptr, i32 } %7, 0
  call void @__clang_call_terminate(ptr %8) #14
  unreachable

_ZNSt13__atomic_baseIiE5storeEiSt12memory_order.exit: ; preds = %seqcst.i, %release.i, %monotonic.i
  ret void
}

; Function Attrs: mustprogress uwtable
define linkonce_odr dso_local noundef i64 @_ZN6google8protobuf8internal14WireFormatLite19LengthDelimitedSizeEm(i64 noundef %length) #4 comdat align 2 {
entry:
  %length.addr = alloca i64, align 8
  store i64 %length, ptr %length.addr, align 8
  %0 = load i64, ptr %length.addr, align 8
  %1 = load i64, ptr %length.addr, align 8
  %conv = trunc i64 %1 to i32
  %call = call noundef i64 @_ZN6google8protobuf2io17CodedOutputStream12VarintSize32Ej(i32 noundef %conv)
  %add = add i64 %0, %call
  ret i64 %add
}

; Function Attrs: mustprogress nounwind uwtable
define linkonce_odr dso_local void @_ZN6google8protobuf8internal19RepeatedPtrIteratorIKN6mygame6rect32EEC2IS4_EERKNS2_IT_EE(ptr noundef nonnull align 8 dereferenceable(8) %this, ptr noundef nonnull align 8 dereferenceable(8) %other) unnamed_addr #5 comdat align 2 {
entry:
  %this.addr = alloca ptr, align 8
  %other.addr = alloca ptr, align 8
  store ptr %this, ptr %this.addr, align 8
  store ptr %other, ptr %other.addr, align 8
  %this1 = load ptr, ptr %this.addr, align 8
  %it_ = getelementptr inbounds %"class.google::protobuf::internal::RepeatedPtrIterator.17", ptr %this1, i32 0, i32 0
  %0 = load ptr, ptr %other.addr, align 8
  %it_2 = getelementptr inbounds %"class.google::protobuf::internal::RepeatedPtrIterator.37", ptr %0, i32 0, i32 0
  %1 = load ptr, ptr %it_2, align 8
  store ptr %1, ptr %it_, align 8
  ret void
}

; Function Attrs: mustprogress nounwind uwtable
define linkonce_odr dso_local void @_ZN6google8protobuf8internal19RepeatedPtrIteratorIN6mygame6rect32EEC2EPKPv(ptr noundef nonnull align 8 dereferenceable(8) %this, ptr noundef %it) unnamed_addr #5 comdat align 2 {
entry:
  %this.addr = alloca ptr, align 8
  %it.addr = alloca ptr, align 8
  store ptr %this, ptr %this.addr, align 8
  store ptr %it, ptr %it.addr, align 8
  %this1 = load ptr, ptr %this.addr, align 8
  %it_ = getelementptr inbounds %"class.google::protobuf::internal::RepeatedPtrIterator.37", ptr %this1, i32 0, i32 0
  %0 = load ptr, ptr %it.addr, align 8
  store ptr %0, ptr %it_, align 8
  ret void
}

; Function Attrs: mustprogress nounwind uwtable
define linkonce_odr dso_local noundef ptr @_ZNK6google8protobuf8internal20RepeatedPtrFieldBase8raw_dataEv(ptr noundef nonnull align 8 dereferenceable(24) %this) #5 comdat align 2 {
entry:
  %this.addr = alloca ptr, align 8
  store ptr %this, ptr %this.addr, align 8
  %this1 = load ptr, ptr %this.addr, align 8
  %rep_ = getelementptr inbounds %"class.google::protobuf::internal::RepeatedPtrFieldBase", ptr %this1, i32 0, i32 3
  %0 = load ptr, ptr %rep_, align 8
  %tobool = icmp ne ptr %0, null
  br i1 %tobool, label %cond.true, label %cond.false

cond.true:                                        ; preds = %entry
  %rep_2 = getelementptr inbounds %"class.google::protobuf::internal::RepeatedPtrFieldBase", ptr %this1, i32 0, i32 3
  %1 = load ptr, ptr %rep_2, align 8
  %elements = getelementptr inbounds %"struct.google::protobuf::internal::RepeatedPtrFieldBase::Rep", ptr %1, i32 0, i32 1
  %arraydecay = getelementptr inbounds [1 x ptr], ptr %elements, i64 0, i64 0
  br label %cond.end

cond.false:                                       ; preds = %entry
  br label %cond.end

cond.end:                                         ; preds = %cond.false, %cond.true
  %cond = phi ptr [ %arraydecay, %cond.true ], [ null, %cond.false ]
  ret ptr %cond
}

; Function Attrs: mustprogress nounwind uwtable
define linkonce_odr dso_local noundef i32 @_ZNK6google8protobuf16RepeatedPtrFieldIN6mygame6rect32EE4sizeEv(ptr noundef nonnull align 8 dereferenceable(24) %this) #5 comdat align 2 {
entry:
  %this.addr = alloca ptr, align 8
  store ptr %this, ptr %this.addr, align 8
  %this1 = load ptr, ptr %this.addr, align 8
  %call = call noundef i32 @_ZNK6google8protobuf8internal20RepeatedPtrFieldBase4sizeEv(ptr noundef nonnull align 8 dereferenceable(24) %this1)
  ret i32 %call
}

; Function Attrs: mustprogress uwtable
define dso_local void @_ZNK6mygame7rect32s13SetCachedSizeEi(ptr noundef nonnull align 8 dereferenceable(48) %this, i32 noundef %size) unnamed_addr #4 align 2 {
entry:
  %this.addr = alloca ptr, align 8
  %size.addr = alloca i32, align 4
  store ptr %this, ptr %this.addr, align 8
  store i32 %size, ptr %size.addr, align 4
  %this1 = load ptr, ptr %this.addr, align 8
  %_cached_size_ = getelementptr inbounds %"class.mygame::rect32s", ptr %this1, i32 0, i32 2
  %0 = load i32, ptr %size.addr, align 4
  call void @_ZN6google8protobuf8internal10CachedSize3SetEi(ptr noundef nonnull align 4 dereferenceable(4) %_cached_size_, i32 noundef %0)
  ret void
}

; Function Attrs: mustprogress nounwind uwtable
define linkonce_odr dso_local noundef i32 @_ZN6google8protobuf8internal12ToCachedSizeEm(i64 noundef %size) #5 comdat {
entry:
  %size.addr = alloca i64, align 8
  store i64 %size, ptr %size.addr, align 8
  %0 = load i64, ptr %size.addr, align 8
  %conv = trunc i64 %0 to i32
  ret i32 %conv
}

; Function Attrs: mustprogress nounwind uwtable
define linkonce_odr dso_local noundef nonnull align 8 dereferenceable(8) ptr @_ZN6google8protobuf8internal19RepeatedPtrIteratorIKN6mygame6rect32EEppEv(ptr noundef nonnull align 8 dereferenceable(8) %this) #5 comdat align 2 {
entry:
  %this.addr = alloca ptr, align 8
  store ptr %this, ptr %this.addr, align 8
  %this1 = load ptr, ptr %this.addr, align 8
  %it_ = getelementptr inbounds %"class.google::protobuf::internal::RepeatedPtrIterator.17", ptr %this1, i32 0, i32 0
  %0 = load ptr, ptr %it_, align 8
  %incdec.ptr = getelementptr inbounds ptr, ptr %0, i32 1
  store ptr %incdec.ptr, ptr %it_, align 8
  ret ptr %this1
}

; Function Attrs: mustprogress uwtable
define linkonce_odr dso_local noundef i64 @_ZN6google8protobuf8internal14WireFormatLite11MessageSizeIN6mygame6rect32EEEmRKT_(ptr noundef nonnull align 8 dereferenceable(40) %value) #4 comdat align 2 {
entry:
  %value.addr = alloca ptr, align 8
  store ptr %value, ptr %value.addr, align 8
  %0 = load ptr, ptr %value.addr, align 8
  %call = call noundef i64 @_ZNK6mygame6rect3212ByteSizeLongEv(ptr noundef nonnull align 8 dereferenceable(40) %0)
  %call1 = call noundef i64 @_ZN6google8protobuf8internal14WireFormatLite19LengthDelimitedSizeEm(i64 noundef %call)
  ret i64 %call1
}

; Function Attrs: mustprogress nounwind uwtable
define linkonce_odr dso_local noundef nonnull align 8 dereferenceable(40) ptr @_ZNK6google8protobuf8internal19RepeatedPtrIteratorIKN6mygame6rect32EEdeEv(ptr noundef nonnull align 8 dereferenceable(8) %this) #5 comdat align 2 {
entry:
  %this.addr = alloca ptr, align 8
  store ptr %this, ptr %this.addr, align 8
  %this1 = load ptr, ptr %this.addr, align 8
  %it_ = getelementptr inbounds %"class.google::protobuf::internal::RepeatedPtrIterator.17", ptr %this1, i32 0, i32 0
  %0 = load ptr, ptr %it_, align 8
  %1 = load ptr, ptr %0, align 8
  ret ptr %1
}

; Function Attrs: mustprogress nounwind uwtable
define linkonce_odr dso_local noundef zeroext i1 @_ZNK6google8protobuf8internal19RepeatedPtrIteratorIKN6mygame6rect32EEneERKS6_(ptr noundef nonnull align 8 dereferenceable(8) %this, ptr noundef nonnull align 8 dereferenceable(8) %x) #5 comdat align 2 {
entry:
  %this.addr = alloca ptr, align 8
  %x.addr = alloca ptr, align 8
  store ptr %this, ptr %this.addr, align 8
  store ptr %x, ptr %x.addr, align 8
  %this1 = load ptr, ptr %this.addr, align 8
  %it_ = getelementptr inbounds %"class.google::protobuf::internal::RepeatedPtrIterator.17", ptr %this1, i32 0, i32 0
  %0 = load ptr, ptr %it_, align 8
  %1 = load ptr, ptr %x.addr, align 8
  %it_2 = getelementptr inbounds %"class.google::protobuf::internal::RepeatedPtrIterator.17", ptr %1, i32 0, i32 0
  %2 = load ptr, ptr %it_2, align 8
  %cmp = icmp ne ptr %0, %2
  ret i1 %cmp
}

; Function Attrs: mustprogress uwtable
define linkonce_odr dso_local ptr @_ZNK6google8protobuf16RepeatedPtrFieldIN6mygame6rect32EE3endEv(ptr noundef nonnull align 8 dereferenceable(24) %this) #4 comdat align 2 {
entry:
  %retval = alloca %"class.google::protobuf::internal::RepeatedPtrIterator.17", align 8
  %this.addr = alloca ptr, align 8
  %ref.tmp = alloca %"class.google::protobuf::internal::RepeatedPtrIterator.37", align 8
  store ptr %this, ptr %this.addr, align 8
  %this1 = load ptr, ptr %this.addr, align 8
  %call = call noundef ptr @_ZNK6google8protobuf8internal20RepeatedPtrFieldBase8raw_dataEv(ptr noundef nonnull align 8 dereferenceable(24) %this1)
  %call2 = call noundef i32 @_ZNK6google8protobuf16RepeatedPtrFieldIN6mygame6rect32EE4sizeEv(ptr noundef nonnull align 8 dereferenceable(24) %this1)
  %idx.ext = sext i32 %call2 to i64
  %add.ptr = getelementptr inbounds ptr, ptr %call, i64 %idx.ext
  call void @_ZN6google8protobuf8internal19RepeatedPtrIteratorIN6mygame6rect32EEC2EPKPv(ptr noundef nonnull align 8 dereferenceable(8) %ref.tmp, ptr noundef %add.ptr)
  call void @_ZN6google8protobuf8internal19RepeatedPtrIteratorIKN6mygame6rect32EEC2IS4_EERKNS2_IT_EE(ptr noundef nonnull align 8 dereferenceable(8) %retval, ptr noundef nonnull align 8 dereferenceable(8) %ref.tmp)
  %coerce.dive = getelementptr inbounds %"class.google::protobuf::internal::RepeatedPtrIterator.17", ptr %retval, i32 0, i32 0
  %0 = load ptr, ptr %coerce.dive, align 8
  ret ptr %0
}

; Function Attrs: mustprogress uwtable
define linkonce_odr dso_local ptr @_ZNK6google8protobuf16RepeatedPtrFieldIN6mygame6rect32EE5beginEv(ptr noundef nonnull align 8 dereferenceable(24) %this) #4 comdat align 2 {
entry:
  %retval = alloca %"class.google::protobuf::internal::RepeatedPtrIterator.17", align 8
  %this.addr = alloca ptr, align 8
  %ref.tmp = alloca %"class.google::protobuf::internal::RepeatedPtrIterator.37", align 8
  store ptr %this, ptr %this.addr, align 8
  %this1 = load ptr, ptr %this.addr, align 8
  %call = call noundef ptr @_ZNK6google8protobuf8internal20RepeatedPtrFieldBase8raw_dataEv(ptr noundef nonnull align 8 dereferenceable(24) %this1)
  call void @_ZN6google8protobuf8internal19RepeatedPtrIteratorIN6mygame6rect32EEC2EPKPv(ptr noundef nonnull align 8 dereferenceable(8) %ref.tmp, ptr noundef %call)
  call void @_ZN6google8protobuf8internal19RepeatedPtrIteratorIKN6mygame6rect32EEC2IS4_EERKNS2_IT_EE(ptr noundef nonnull align 8 dereferenceable(8) %retval, ptr noundef nonnull align 8 dereferenceable(8) %ref.tmp)
  %coerce.dive = getelementptr inbounds %"class.google::protobuf::internal::RepeatedPtrIterator.17", ptr %retval, i32 0, i32 0
  %0 = load ptr, ptr %coerce.dive, align 8
  ret ptr %0
}

; Function Attrs: mustprogress uwtable
define linkonce_odr dso_local noundef i32 @_ZNK6mygame7rect32s26_internal_rect32_list_sizeEv(ptr noundef nonnull align 8 dereferenceable(48) %this) #4 comdat align 2 {
entry:
  %this.addr = alloca ptr, align 8
  store ptr %this, ptr %this.addr, align 8
  %this1 = load ptr, ptr %this.addr, align 8
  %rect32_list_ = getelementptr inbounds %"class.mygame::rect32s", ptr %this1, i32 0, i32 1
  %call = call noundef i32 @_ZNK6google8protobuf16RepeatedPtrFieldIN6mygame6rect32EE4sizeEv(ptr noundef nonnull align 8 dereferenceable(24) %rect32_list_)
  ret i32 %call
}

; Function Attrs: mustprogress uwtable
define dso_local noundef i64 @_ZNK6mygame7rect32s12ByteSizeLongEv(ptr noundef nonnull align 8 dereferenceable(48) %this) unnamed_addr #4 align 2 {
entry:
  %this.addr.i15 = alloca ptr, align 8
  %this.addr.i = alloca ptr, align 8
  %retval = alloca i64, align 8
  %this.addr = alloca ptr, align 8
  %total_size = alloca i64, align 8
  %cached_has_bits = alloca i32, align 4
  %__range1 = alloca ptr, align 8
  %__begin1 = alloca %"class.google::protobuf::internal::RepeatedPtrIterator.17", align 8
  %__end1 = alloca %"class.google::protobuf::internal::RepeatedPtrIterator.17", align 8
  %msg = alloca ptr, align 8
  %cached_size = alloca i32, align 4
  store ptr %this, ptr %this.addr, align 8
  %this1 = load ptr, ptr %this.addr, align 8
  store i64 0, ptr %total_size, align 8
  store i32 0, ptr %cached_has_bits, align 4
  %call = call noundef i32 @_ZNK6mygame7rect32s26_internal_rect32_list_sizeEv(ptr noundef nonnull align 8 dereferenceable(48) %this1)
  %conv = sext i32 %call to i64
  %mul = mul i64 1, %conv
  %0 = load i64, ptr %total_size, align 8
  %add = add i64 %0, %mul
  store i64 %add, ptr %total_size, align 8
  %rect32_list_ = getelementptr inbounds %"class.mygame::rect32s", ptr %this1, i32 0, i32 1
  store ptr %rect32_list_, ptr %__range1, align 8
  %1 = load ptr, ptr %__range1, align 8
  %call2 = call ptr @_ZNK6google8protobuf16RepeatedPtrFieldIN6mygame6rect32EE5beginEv(ptr noundef nonnull align 8 dereferenceable(24) %1)
  %coerce.dive = getelementptr inbounds %"class.google::protobuf::internal::RepeatedPtrIterator.17", ptr %__begin1, i32 0, i32 0
  store ptr %call2, ptr %coerce.dive, align 8
  %2 = load ptr, ptr %__range1, align 8
  %call3 = call ptr @_ZNK6google8protobuf16RepeatedPtrFieldIN6mygame6rect32EE3endEv(ptr noundef nonnull align 8 dereferenceable(24) %2)
  %coerce.dive4 = getelementptr inbounds %"class.google::protobuf::internal::RepeatedPtrIterator.17", ptr %__end1, i32 0, i32 0
  store ptr %call3, ptr %coerce.dive4, align 8
  br label %for.cond

for.cond:                                         ; preds = %for.inc, %entry
  %call5 = call noundef zeroext i1 @_ZNK6google8protobuf8internal19RepeatedPtrIteratorIKN6mygame6rect32EEneERKS6_(ptr noundef nonnull align 8 dereferenceable(8) %__begin1, ptr noundef nonnull align 8 dereferenceable(8) %__end1)
  br i1 %call5, label %for.body, label %for.end

for.body:                                         ; preds = %for.cond
  %call6 = call noundef nonnull align 8 dereferenceable(40) ptr @_ZNK6google8protobuf8internal19RepeatedPtrIteratorIKN6mygame6rect32EEdeEv(ptr noundef nonnull align 8 dereferenceable(8) %__begin1)
  store ptr %call6, ptr %msg, align 8
  %3 = load ptr, ptr %msg, align 8
  %call7 = call noundef i64 @_ZN6google8protobuf8internal14WireFormatLite11MessageSizeIN6mygame6rect32EEEmRKT_(ptr noundef nonnull align 8 dereferenceable(40) %3)
  %4 = load i64, ptr %total_size, align 8
  %add8 = add i64 %4, %call7
  store i64 %add8, ptr %total_size, align 8
  br label %for.inc

for.inc:                                          ; preds = %for.body
  %call9 = call noundef nonnull align 8 dereferenceable(8) ptr @_ZN6google8protobuf8internal19RepeatedPtrIteratorIKN6mygame6rect32EEppEv(ptr noundef nonnull align 8 dereferenceable(8) %__begin1)
  br label %for.cond

for.end:                                          ; preds = %for.cond
  %_internal_metadata_ = getelementptr inbounds %"class.google::protobuf::MessageLite", ptr %this1, i32 0, i32 1
  store ptr %_internal_metadata_, ptr %this.addr.i, align 8
  %this1.i = load ptr, ptr %this.addr.i, align 8
  store ptr %this1.i, ptr %this.addr.i15, align 8
  %this1.i16 = load ptr, ptr %this.addr.i15, align 8
  %5 = load ptr, ptr %this1.i16, align 8
  %6 = ptrtoint ptr %5 to i64
  %and.i = and i64 %6, 1
  %conv.i = trunc i64 %and.i to i32
  %cmp.i = icmp eq i32 %conv.i, 1
  br i1 %cmp.i, label %if.then, label %if.end

if.then:                                          ; preds = %for.end
  %_internal_metadata_12 = getelementptr inbounds %"class.google::protobuf::MessageLite", ptr %this1, i32 0, i32 1
  %7 = load i64, ptr %total_size, align 8
  %_cached_size_ = getelementptr inbounds %"class.mygame::rect32s", ptr %this1, i32 0, i32 2
  %call13 = call noundef i64 @_ZN6google8protobuf8internal24ComputeUnknownFieldsSizeERKNS1_16InternalMetadataEmPNS1_10CachedSizeE(ptr noundef nonnull align 8 dereferenceable(8) %_internal_metadata_12, i64 noundef %7, ptr noundef %_cached_size_)
  store i64 %call13, ptr %retval, align 8
  br label %return

if.end:                                           ; preds = %for.end
  %8 = load i64, ptr %total_size, align 8
  %call14 = call noundef i32 @_ZN6google8protobuf8internal12ToCachedSizeEm(i64 noundef %8)
  store i32 %call14, ptr %cached_size, align 4
  %9 = load i32, ptr %cached_size, align 4
  call void @_ZNK6mygame7rect32s13SetCachedSizeEi(ptr noundef nonnull align 8 dereferenceable(48) %this1, i32 noundef %9)
  %10 = load i64, ptr %total_size, align 8
  store i64 %10, ptr %retval, align 8
  br label %return

return:                                           ; preds = %if.end, %if.then
  %11 = load i64, ptr %retval, align 8
  ret i64 %11
}