; Function Attrs: mustprogress uwtable
define dso_local noundef i64 @_ZNK6mygame7rect32s12ByteSizeLongEv(ptr noundef nonnull align 8 dereferenceable(48) %this) unnamed_addr #3 align 2 personality ptr @__gxx_personality_v0 {
entry:
  %current_size_.i.i.i = getelementptr inbounds i8, ptr %this, i64 24
  %0 = load i32, ptr %current_size_.i.i.i, align 8
  %conv = sext i32 %0 to i64
  %rep_.i.i = getelementptr inbounds i8, ptr %this, i64 32
  %1 = load ptr, ptr %rep_.i.i, align 8
  %tobool.not.i.i = icmp eq ptr %1, null
  %elements.i.i = getelementptr inbounds i8, ptr %1, i64 8
  %spec.select.i.i = select i1 %tobool.not.i.i, ptr null, ptr %elements.i.i
  %add.ptr.i = getelementptr inbounds ptr, ptr %spec.select.i.i, i64 %conv
  %cmp.i.not1415 = icmp eq i32 %0, 0
  br i1 %cmp.i.not1415, label %for.end, label %for.body

for.body:                                         ; preds = %entry, %for.body
  %total_size.017 = phi i64 [ %add8, %for.body ], [ %conv, %entry ]
  %__begin1.sroa.0.016 = phi ptr [ %incdec.ptr.i, %for.body ], [ %spec.select.i.i, %entry ]
  %2 = load ptr, ptr %__begin1.sroa.0.016, align 8
  %call.i = tail call noundef i64 @_ZNK6mygame6rect3212ByteSizeLongEv(ptr noundef nonnull align 8 dereferenceable(40) %2)
  %conv.i.i = trunc i64 %call.i to i32
  %or.i.i.i = or i32 %conv.i.i, 1
  %3 = tail call i32 @llvm.ctlz.i32(i32 %or.i.i.i, i1 true), !range !9
  %xor.i.i.i.i = xor i32 %3, 31
  %mul.i.i.i = mul nuw nsw i32 %xor.i.i.i.i, 9
  %add.i.i.i = add nuw nsw i32 %mul.i.i.i, 73
  %div1.i.i.i = lshr i32 %add.i.i.i, 6
  %conv.i.i.i = zext nneg i32 %div1.i.i.i to i64
  %add.i.i = add i64 %call.i, %total_size.017
  %add8 = add i64 %add.i.i, %conv.i.i.i
  %incdec.ptr.i = getelementptr inbounds i8, ptr %__begin1.sroa.0.016, i64 8
  %cmp.i.not14 = icmp eq ptr %incdec.ptr.i, %add.ptr.i
  br i1 %cmp.i.not14, label %for.end, label %for.body

for.end:                                          ; preds = %for.body, %entry
  %total_size.0.lcssa = phi i64 [ 0, %entry ], [ %add8, %for.body ]
  %_internal_metadata_ = getelementptr inbounds i8, ptr %this, i64 8
  %4 = load ptr, ptr %_internal_metadata_, align 8
  %5 = ptrtoint ptr %4 to i64
  %conv.i6 = and i64 %5, 1
  %cmp.i.not = icmp eq i64 %conv.i6, 0
  br i1 %cmp.i.not, label %if.end, label %if.then

if.then:                                          ; preds = %for.end
  %_cached_size_ = getelementptr inbounds i8, ptr %this, i64 40
  %call13 = tail call noundef i64 @_ZN6google8protobuf8internal24ComputeUnknownFieldsSizeERKNS1_16InternalMetadataEmPNS1_10CachedSizeE(ptr noundef nonnull align 8 dereferenceable(8) %_internal_metadata_, i64 noundef %total_size.0.lcssa, ptr noundef nonnull %_cached_size_)
  br label %return

if.end:                                           ; preds = %for.end
  %conv.i = trunc i64 %total_size.0.lcssa to i32
  %_cached_size_.i = getelementptr inbounds i8, ptr %this, i64 40
  store atomic i32 %conv.i, ptr %_cached_size_.i monotonic, align 8
  br label %return

return:                                           ; preds = %if.end, %if.then
  %retval.0 = phi i64 [ %call13, %if.then ], [ %total_size.0.lcssa, %if.end ]
  ret i64 %retval.0
}